target datalayout = "e-m:e-p270:32:32-p271:32:32-p272:64:64-i64:64-i128:128-f80:128-n8:16:32:64-S128"
target triple = "x86_64-pc-linux-gnu"

%"class.rocksdb::Status" = type { i8, i8, i8, i8, i8, i8, %"class.std::unique_ptr.198" }
%"class.std::unique_ptr.198" = type { %"struct.std::__uniq_ptr_data.199" }
%"struct.std::__uniq_ptr_data.199" = type { %"class.std::__uniq_ptr_impl.200" }
%"class.std::__uniq_ptr_impl.200" = type { %"class.std::tuple.201" }
%"class.std::tuple.201" = type { %"struct.std::_Tuple_impl.202" }
%"struct.std::_Tuple_impl.202" = type { %"struct.std::_Head_base.205" }
%"struct.std::_Head_base.205" = type { ptr }

; Function Attrs: mustprogress nounwind uwtable
define linkonce_odr void @_ZNSt10_Head_baseILm1ESt14default_deleteIA_KcELb1EEC2Ev(ptr noundef nonnull align 1 dereferenceable(1) %0) unnamed_addr #3 comdat align 2 {
  %2 = alloca ptr, align 8
  store ptr %0, ptr %2, align 8, !tbaa !921
  ret void
}

; Function Attrs: mustprogress nounwind uwtable
define linkonce_odr void @_ZNSt10_Head_baseILm0EPKcLb0EEC2Ev(ptr noundef nonnull align 8 dereferenceable(8) %0) unnamed_addr #3 comdat align 2 {
  %2 = alloca ptr, align 8
  store ptr %0, ptr %2, align 8, !tbaa !917
  %3 = load ptr, ptr %2, align 8
  %4 = getelementptr inbounds nuw %"struct.std::_Head_base.205", ptr %3, i32 0, i32 0
  store ptr null, ptr %4, align 8, !tbaa !925
  ret void
}

; Function Attrs: mustprogress uwtable
define linkonce_odr void @_ZNSt11_Tuple_implILm1EJSt14default_deleteIA_KcEEEC2Ev(ptr noundef nonnull align 1 dereferenceable(1) %0) unnamed_addr #5 comdat align 2 {
  %2 = alloca ptr, align 8
  store ptr %0, ptr %2, align 8, !tbaa !919
  %3 = load ptr, ptr %2, align 8
  call void @_ZNSt10_Head_baseILm1ESt14default_deleteIA_KcELb1EEC2Ev(ptr noundef nonnull align 1 dereferenceable(1) %3)
  ret void
}

; Function Attrs: noinline noreturn nounwind uwtable
define linkonce_odr hidden void @__clang_call_terminate(ptr noundef %0) #9 comdat {
  %2 = call ptr @__cxa_begin_catch(ptr %0) #4
  call void @_ZSt9terminatev() #22
  unreachable
}

; Function Attrs: mustprogress uwtable
define linkonce_odr void @_ZNSt11_Tuple_implILm0EJPKcSt14default_deleteIA_S0_EEEC2Ev(ptr noundef nonnull align 8 dereferenceable(8) %0) unnamed_addr #5 comdat align 2 {
  %2 = alloca ptr, align 8
  store ptr %0, ptr %2, align 8, !tbaa !915
  %3 = load ptr, ptr %2, align 8
  call void @_ZNSt11_Tuple_implILm1EJSt14default_deleteIA_KcEEEC2Ev(ptr noundef nonnull align 1 dereferenceable(1) %3)
  call void @_ZNSt10_Head_baseILm0EPKcLb0EEC2Ev(ptr noundef nonnull align 8 dereferenceable(8) %3)
  ret void
}

; Function Attrs: mustprogress nounwind uwtable
define linkonce_odr void @_ZNSt5tupleIJPKcSt14default_deleteIA_S0_EEEC2ILb1ETnNSt9enable_ifIXclsr17_TupleConstraintsIXT_ES1_S4_EE37__is_implicitly_default_constructibleEEbE4typeELb1EEEv(ptr noundef nonnull align 8 dereferenceable(8) %0) unnamed_addr #3 comdat align 2 personality ptr @__gxx_personality_v0 {
  %2 = alloca ptr, align 8
  store ptr %0, ptr %2, align 8, !tbaa !913
  %3 = load ptr, ptr %2, align 8
  invoke void @_ZNSt11_Tuple_implILm0EJPKcSt14default_deleteIA_S0_EEEC2Ev(ptr noundef nonnull align 8 dereferenceable(8) %3)
          to label %4 unwind label %5

4:                                                ; preds = %1
  ret void

5:                                                ; preds = %1
  %6 = landingpad { ptr, i32 }
          catch ptr null
  %7 = extractvalue { ptr, i32 } %6, 0
  call void @__clang_call_terminate(ptr %7) #22
  unreachable
}

; Function Attrs: mustprogress nounwind uwtable
define linkonce_odr void @_ZNSt15__uniq_ptr_implIKcSt14default_deleteIA_S0_EEC2Ev(ptr noundef nonnull align 8 dereferenceable(8) %0) unnamed_addr #3 comdat align 2 {
  %2 = alloca ptr, align 8
  store ptr %0, ptr %2, align 8, !tbaa !909
  %3 = load ptr, ptr %2, align 8
  %4 = getelementptr inbounds nuw %"class.std::__uniq_ptr_impl.200", ptr %3, i32 0, i32 0
  call void @_ZNSt5tupleIJPKcSt14default_deleteIA_S0_EEEC2ILb1ETnNSt9enable_ifIXclsr17_TupleConstraintsIXT_ES1_S4_EE37__is_implicitly_default_constructibleEEbE4typeELb1EEEv(ptr noundef nonnull align 8 dereferenceable(8) %4) #4
  ret void
}

; Function Attrs: inlinehint mustprogress nounwind uwtable
define linkonce_odr void @_ZNSt15__uniq_ptr_dataIKcSt14default_deleteIA_S0_ELb1ELb1EEC2Ev(ptr noundef nonnull align 8 dereferenceable(8) %0) unnamed_addr #1 comdat align 2 {
  %2 = alloca ptr, align 8
  store ptr %0, ptr %2, align 8, !tbaa !923
  %3 = load ptr, ptr %2, align 8
  call void @_ZNSt15__uniq_ptr_implIKcSt14default_deleteIA_S0_EEC2Ev(ptr noundef nonnull align 8 dereferenceable(8) %3) #4
  ret void
}

; Function Attrs: mustprogress nounwind uwtable
define linkonce_odr void @_ZNSt10unique_ptrIA_KcSt14default_deleteIS1_EEC2IS3_vEEv(ptr noundef nonnull align 8 dereferenceable(8) %0) unnamed_addr #3 comdat align 2 {
  %2 = alloca ptr, align 8
  store ptr %0, ptr %2, align 8, !tbaa !905
  %3 = load ptr, ptr %2, align 8
  %4 = getelementptr inbounds nuw %"class.std::unique_ptr.198", ptr %3, i32 0, i32 0
  call void @llvm.memset.p0.i64(ptr align 8 %4, i8 0, i64 8, i1 false)
  call void @_ZNSt15__uniq_ptr_dataIKcSt14default_deleteIA_S0_ELb1ELb1EEC2Ev(ptr noundef nonnull align 8 dereferenceable(8) %4) #4
  ret void
}

; Function Attrs: mustprogress nounwind uwtable
define linkonce_odr void @_ZN7rocksdb6StatusC2ENS0_4CodeENS0_7SubCodeE(ptr noundef nonnull align 8 dereferenceable(16) %0, i8 noundef zeroext %1, i8 noundef zeroext %2) unnamed_addr #3 comdat align 2 {
  %4 = alloca ptr, align 8
  %5 = alloca i8, align 1
  %6 = alloca i8, align 1
  store ptr %0, ptr %4, align 8, !tbaa !318
  store i8 %1, ptr %5, align 1, !tbaa !342
  store i8 %2, ptr %6, align 1, !tbaa !343
  %7 = load ptr, ptr %4, align 8
  %8 = getelementptr inbounds nuw %"class.rocksdb::Status", ptr %7, i32 0, i32 0
  %9 = load i8, ptr %5, align 1, !tbaa !342
  store i8 %9, ptr %8, align 8, !tbaa !326
  %10 = getelementptr inbounds nuw %"class.rocksdb::Status", ptr %7, i32 0, i32 1
  %11 = load i8, ptr %6, align 1, !tbaa !343
  store i8 %11, ptr %10, align 1, !tbaa !337
  %12 = getelementptr inbounds nuw %"class.rocksdb::Status", ptr %7, i32 0, i32 2
  store i8 0, ptr %12, align 2, !tbaa !338
  %13 = getelementptr inbounds nuw %"class.rocksdb::Status", ptr %7, i32 0, i32 3
  store i8 0, ptr %13, align 1, !tbaa !339
  %14 = getelementptr inbounds nuw %"class.rocksdb::Status", ptr %7, i32 0, i32 4
  store i8 0, ptr %14, align 4, !tbaa !340
  %15 = getelementptr inbounds nuw %"class.rocksdb::Status", ptr %7, i32 0, i32 5
  store i8 0, ptr %15, align 1, !tbaa !341
  %16 = getelementptr inbounds nuw %"class.rocksdb::Status", ptr %7, i32 0, i32 6
  call void @_ZNSt10unique_ptrIA_KcSt14default_deleteIS1_EEC2IS3_vEEv(ptr noundef nonnull align 8 dereferenceable(8) %16) #4
  ret void
}

; Function Attrs: mustprogress uwtable
define linkonce_odr void @_ZN7rocksdb6Status15InvalidArgumentENS0_7SubCodeE(ptr dead_on_unwind noalias writable sret(%"class.rocksdb::Status") align 8 %0, i8 noundef zeroext %1) #5 comdat align 2 {
  %3 = alloca ptr, align 8
  %4 = alloca i8, align 1
  store ptr %0, ptr %3, align 8
  store i8 %1, ptr %4, align 1, !tbaa !343
  %5 = load i8, ptr %4, align 1, !tbaa !343
  call void @_ZN7rocksdb6StatusC2ENS0_4CodeENS0_7SubCodeE(ptr noundef nonnull align 8 dereferenceable(16) %0, i8 noundef zeroext 4, i8 noundef zeroext %5)
  ret void
}

; Function Attrs: mustprogress uwtable
define internal void @_ZZN7rocksdb18WriteUnpreparedTxn21RebuildFromWriteBatchEPNS_10WriteBatchEEN15TrackKeyHandler14MarkEndPrepareERKNS_5SliceE(ptr dead_on_unwind noalias writable sret(%"class.rocksdb::Status") align 8 %0, ptr noundef nonnull align 8 dereferenceable(17) %1, ptr noundef nonnull align 8 dereferenceable(16) %2) unnamed_addr #5 align 2 {
  %4 = alloca ptr, align 8
  %5 = alloca ptr, align 8
  %6 = alloca ptr, align 8
  store ptr %0, ptr %4, align 8
  store ptr %1, ptr %5, align 8, !tbaa !379
  store ptr %2, ptr %6, align 8, !tbaa !356
  call void @_ZN7rocksdb6Status15InvalidArgumentENS0_7SubCodeE(ptr dead_on_unwind writable sret(%"class.rocksdb::Status") align 8 %0, i8 noundef zeroext 0)
  ret void
}