; Function Attrs: mustprogress nofree norecurse nosync nounwind willreturn memory(argmem: write) uwtable
define internal void @_ZZN7rocksdb18WriteUnpreparedTxn21RebuildFromWriteBatchEPNS_10WriteBatchEEN15TrackKeyHandler14MarkEndPrepareERKNS_5SliceE(ptr dead_on_unwind noalias writable writeonly sret(%"class.rocksdb::Status") align 8 captures(none) initializes((0, 6), (8, 16)) %0, ptr nonnull readnone align 8 captures(none) %1, ptr nonnull readnone align 8 captures(none) %2) unnamed_addr #18 align 2 personality ptr @__gxx_personality_v0 {
  store i8 4, ptr %0, align 8, !tbaa !273, !alias.scope !616
  %4 = getelementptr inbounds nuw i8, ptr %0, i64 1
  store i8 0, ptr %4, align 1, !tbaa !310, !alias.scope !616
  %5 = getelementptr inbounds nuw i8, ptr %0, i64 2
  %6 = getelementptr inbounds nuw i8, ptr %0, i64 8
  store ptr null, ptr %6, align 8, !tbaa !306, !alias.scope !616
  store i32 0, ptr %5, align 2, !alias.scope !616
  ret void
}